target datalayout = "e-m:e-p270:32:32-p271:32:32-p272:64:64-i64:64-i128:128-f80:128-n8:16:32:64-S128"
target triple = "x86_64-pc-linux-gnu"

%struct.opj_stream_private = type { ptr, ptr, i64, ptr, ptr, ptr, ptr, ptr, ptr, ptr, ptr, i64, i64, i64, i32 }

; Function Attrs: nounwind uwtable
define hidden void @opj_stream_set_seek_function(ptr noundef %0, ptr noundef %1) #0 {
  %3 = alloca ptr, align 8
  %4 = alloca ptr, align 8
  %5 = alloca ptr, align 8
  %6 = alloca i32, align 4
  store ptr %0, ptr %3, align 8, !tbaa !52
  store ptr %1, ptr %4, align 8, !tbaa !51
  call void @llvm.lifetime.start.p0(i64 8, ptr %5) #4
  %7 = load ptr, ptr %3, align 8, !tbaa !52
  store ptr %7, ptr %5, align 8, !tbaa !30
  %8 = load ptr, ptr %5, align 8, !tbaa !30
  %9 = icmp ne ptr %8, null
  br i1 %9, label %11, label %10

10:                                               ; preds = %2
  store i32 1, ptr %6, align 4
  br label %15

11:                                               ; preds = %2
  %12 = load ptr, ptr %4, align 8, !tbaa !51
  %13 = load ptr, ptr %5, align 8, !tbaa !30
  %14 = getelementptr inbounds nuw %struct.opj_stream_private, ptr %13, i32 0, i32 6
  store ptr %12, ptr %14, align 8, !tbaa !42
  store i32 0, ptr %6, align 4
  br label %15

15:                                               ; preds = %11, %10
  call void @llvm.lifetime.end.p0(i64 8, ptr %5) #4
  %16 = load i32, ptr %6, align 4
  switch i32 %16, label %18 [
    i32 0, label %17
    i32 1, label %17
  ]

17:                                               ; preds = %15, %15
  ret void

18:                                               ; preds = %15
  unreachable
}