; Function Attrs: mustprogress nofree norecurse nosync nounwind willreturn memory(argmem: write) uwtable
define hidden void @opj_stream_set_seek_function(ptr noundef writeonly %0, ptr noundef %1) local_unnamed_addr #4 {
  %.not = icmp eq ptr %0, null
  br i1 %.not, label %5, label %3

3:                                                ; preds = %2
  %4 = getelementptr inbounds nuw i8, ptr %0, i64 48
  store ptr %1, ptr %4, align 8, !tbaa !32
  br label %5

5:                                                ; preds = %2, %3
  ret void
}